target datalayout = "e-m:e-p270:32:32-p271:32:32-p272:64:64-i64:64-i128:128-f80:128-n8:16:32:64-S128"
target triple = "x86_64-pc-linux-gnu"

%struct.stb_vorbis = type { i32, i32, i32, i32, i32, ptr, i32, ptr, ptr, i32, i32, ptr, ptr, ptr, i32, i8, i32, %struct.ProbedPage, %struct.ProbedPage, %struct.stb_vorbis_alloc, i32, i32, i32, i32, [2 x i32], i32, i32, i32, ptr, i32, [64 x i16], ptr, i32, [64 x i16], ptr, i32, ptr, i32, [64 x %struct.Mode], i32, [16 x ptr], [16 x ptr], [16 x ptr], i32, [16 x ptr], i32, i32, [2 x ptr], [2 x ptr], [2 x ptr], [2 x ptr], [2 x ptr], i32, i32, i32, [255 x i8], i8, i8, i8, i32, i32, i32, i32, i32, i32, i32, i32, i32, i32, i32, [4 x %struct.CRCscan], i32, i32 }
%struct.ProbedPage = type { i32, i32, i32 }
%struct.stb_vorbis_alloc = type { ptr, i32 }
%struct.Mode = type { i8, i8, i16, i16 }
%struct.CRCscan = type { i32, i32, i32, i32, i32 }

; Function Attrs: nounwind uwtable
define i32 @get8_packet(ptr noundef %0) #0 {
  %2 = alloca ptr, align 8
  %3 = alloca i32, align 4
  store ptr %0, ptr %2, align 8, !tbaa !3
  call void @llvm.lifetime.start.p0(i64 4, ptr %3) #11
  %4 = load ptr, ptr %2, align 8, !tbaa !3
  %5 = call i32 @get8_packet_raw(ptr noundef %4)
  store i32 %5, ptr %3, align 4, !tbaa !8
  %6 = load ptr, ptr %2, align 8, !tbaa !3
  %7 = getelementptr inbounds nuw %struct.stb_vorbis, ptr %6, i32 0, i32 63
  store i32 0, ptr %7, align 8, !tbaa !90
  %8 = load i32, ptr %3, align 4, !tbaa !8
  call void @llvm.lifetime.end.p0(i64 4, ptr %3) #11
  ret i32 %8
}

; Function Attrs: nounwind uwtable
define i32 @get32_packet(ptr noundef %0) #0 {
  %2 = alloca ptr, align 8
  %3 = alloca i32, align 4
  store ptr %0, ptr %2, align 8, !tbaa !3
  call void @llvm.lifetime.start.p0(i64 4, ptr %3) #11
  %4 = load ptr, ptr %2, align 8, !tbaa !3
  %5 = call i32 @get8_packet(ptr noundef %4)
  store i32 %5, ptr %3, align 4, !tbaa !8
  %6 = load ptr, ptr %2, align 8, !tbaa !3
  %7 = call i32 @get8_packet(ptr noundef %6)
  %8 = shl i32 %7, 8
  %9 = load i32, ptr %3, align 4, !tbaa !8
  %10 = add i32 %9, %8
  store i32 %10, ptr %3, align 4, !tbaa !8
  %11 = load ptr, ptr %2, align 8, !tbaa !3
  %12 = call i32 @get8_packet(ptr noundef %11)
  %13 = shl i32 %12, 16
  %14 = load i32, ptr %3, align 4, !tbaa !8
  %15 = add i32 %14, %13
  store i32 %15, ptr %3, align 4, !tbaa !8
  %16 = load ptr, ptr %2, align 8, !tbaa !3
  %17 = call i32 @get8_packet(ptr noundef %16)
  %18 = shl i32 %17, 24
  %19 = load i32, ptr %3, align 4, !tbaa !8
  %20 = add i32 %19, %18
  store i32 %20, ptr %3, align 4, !tbaa !8
  %21 = load i32, ptr %3, align 4, !tbaa !8
  call void @llvm.lifetime.end.p0(i64 4, ptr %3) #11
  ret i32 %21
}