; Function Attrs: nofree nounwind uwtable
define i32 @get32_packet(ptr noundef captures(none) %0) local_unnamed_addr #17 {
  %2 = tail call range(i32 -1, 256) i32 @get8_packet_raw(ptr noundef %0)
  %3 = getelementptr inbounds nuw i8, ptr %0, i64 1784
  store i32 0, ptr %3, align 8, !tbaa !80
  %4 = tail call range(i32 -1, 256) i32 @get8_packet_raw(ptr noundef %0)
  store i32 0, ptr %3, align 8, !tbaa !80
  %5 = shl nsw i32 %4, 8
  %6 = add nsw i32 %5, %2
  %7 = tail call range(i32 -1, 256) i32 @get8_packet_raw(ptr noundef %0)
  store i32 0, ptr %3, align 8, !tbaa !80
  %8 = shl nsw i32 %7, 16
  %9 = add nsw i32 %6, %8
  %10 = tail call range(i32 -1, 256) i32 @get8_packet_raw(ptr noundef %0)
  store i32 0, ptr %3, align 8, !tbaa !80
  %11 = shl i32 %10, 24
  %12 = add i32 %9, %11
  ret i32 %12
}